target datalayout = "e-m:e-p270:32:32-p271:32:32-p272:64:64-i64:64-i128:128-f80:128-n8:16:32:64-S128"
target triple = "x86_64-pc-linux-gnu"

%struct.pg_unicode_decomposition = type { i32, i8, i8, i16 }
%struct.pg_unicode_decompinfo = type { ptr, ptr, i32 }

@__const.get_code_entry.decompinfo = private unnamed_addr constant { ptr, ptr, i32, [4 x i8] } { ptr @UnicodeDecompMain, ptr @Decomp_hash_func, i32 6775, [4 x i8] zeroinitializer }, align 8
@get_code_decomposition.x = internal global i32 0, align 4

; Function Attrs: nounwind uwtable
define internal ptr @get_code_decomposition(ptr noundef %0, ptr noundef %1) #0 {
  %3 = alloca ptr, align 8
  %4 = alloca ptr, align 8
  %5 = alloca ptr, align 8
  store ptr %0, ptr %4, align 8
  store ptr %1, ptr %5, align 8
  %6 = load ptr, ptr %4, align 8
  %7 = getelementptr inbounds nuw %struct.pg_unicode_decomposition, ptr %6, i32 0, i32 2
  %8 = load i8, ptr %7, align 1
  %9 = zext i8 %8 to i32
  %10 = and i32 %9, 64
  %11 = icmp ne i32 %10, 0
  br i1 %11, label %12, label %18

12:                                               ; preds = %2
  %13 = load ptr, ptr %4, align 8
  %14 = getelementptr inbounds nuw %struct.pg_unicode_decomposition, ptr %13, i32 0, i32 3
  %15 = load i16, ptr %14, align 2
  %16 = zext i16 %15 to i32
  store i32 %16, ptr @get_code_decomposition.x, align 4
  %17 = load ptr, ptr %5, align 8
  store i32 1, ptr %17, align 4
  store ptr @get_code_decomposition.x, ptr %3, align 8
  br label %30

18:                                               ; preds = %2
  %19 = load ptr, ptr %4, align 8
  %20 = getelementptr inbounds nuw %struct.pg_unicode_decomposition, ptr %19, i32 0, i32 2
  %21 = load i8, ptr %20, align 1
  %22 = zext i8 %21 to i32
  %23 = and i32 %22, 31
  %24 = load ptr, ptr %5, align 8
  store i32 %23, ptr %24, align 4
  %25 = load ptr, ptr %4, align 8
  %26 = getelementptr inbounds nuw %struct.pg_unicode_decomposition, ptr %25, i32 0, i32 3
  %27 = load i16, ptr %26, align 2
  %28 = zext i16 %27 to i64
  %29 = getelementptr inbounds nuw [5098 x i32], ptr @UnicodeDecomp_codepoints, i64 0, i64 %28
  store ptr %29, ptr %3, align 8
  br label %30

30:                                               ; preds = %18, %12
  %31 = load ptr, ptr %3, align 8
  ret ptr %31
}

; Function Attrs: nounwind uwtable
define internal ptr @get_code_entry(i32 noundef %0) #0 {
  %2 = alloca ptr, align 8
  %3 = alloca i32, align 4
  %4 = alloca i32, align 4
  %5 = alloca i32, align 4
  %6 = alloca %struct.pg_unicode_decompinfo, align 8
  %7 = alloca i32, align 4
  store i32 %0, ptr %3, align 4
  call void @llvm.lifetime.start.p0(i64 4, ptr %4) #5
  call void @llvm.lifetime.start.p0(i64 4, ptr %5) #5
  call void @llvm.lifetime.start.p0(i64 24, ptr %6) #5
  call void @llvm.memcpy.p0.p0.i64(ptr align 8 %6, ptr align 8 @__const.get_code_entry.decompinfo, i64 24, i1 false)
  %8 = load i32, ptr %3, align 4
  %9 = call i32 @llvm.bswap.i32(i32 %8)
  store i32 %9, ptr %5, align 4
  %10 = getelementptr inbounds nuw %struct.pg_unicode_decompinfo, ptr %6, i32 0, i32 1
  %11 = load ptr, ptr %10, align 8
  %12 = call i32 %11(ptr noundef %5)
  store i32 %12, ptr %4, align 4
  %13 = load i32, ptr %4, align 4
  %14 = icmp slt i32 %13, 0
  br i1 %14, label %20, label %15

15:                                               ; preds = %1
  %16 = load i32, ptr %4, align 4
  %17 = getelementptr inbounds nuw %struct.pg_unicode_decompinfo, ptr %6, i32 0, i32 2
  %18 = load i32, ptr %17, align 8
  %19 = icmp sge i32 %16, %18
  br i1 %19, label %20, label %21

20:                                               ; preds = %15, %1
  store ptr null, ptr %2, align 8
  store i32 1, ptr %7, align 4
  br label %38

21:                                               ; preds = %15
  %22 = load i32, ptr %3, align 4
  %23 = getelementptr inbounds nuw %struct.pg_unicode_decompinfo, ptr %6, i32 0, i32 0
  %24 = load ptr, ptr %23, align 8
  %25 = load i32, ptr %4, align 4
  %26 = sext i32 %25 to i64
  %27 = getelementptr inbounds %struct.pg_unicode_decomposition, ptr %24, i64 %26
  %28 = getelementptr inbounds nuw %struct.pg_unicode_decomposition, ptr %27, i32 0, i32 0
  %29 = load i32, ptr %28, align 4
  %30 = icmp ne i32 %22, %29
  br i1 %30, label %31, label %32

31:                                               ; preds = %21
  store ptr null, ptr %2, align 8
  store i32 1, ptr %7, align 4
  br label %38

32:                                               ; preds = %21
  %33 = getelementptr inbounds nuw %struct.pg_unicode_decompinfo, ptr %6, i32 0, i32 0
  %34 = load ptr, ptr %33, align 8
  %35 = load i32, ptr %4, align 4
  %36 = sext i32 %35 to i64
  %37 = getelementptr inbounds %struct.pg_unicode_decomposition, ptr %34, i64 %36
  store ptr %37, ptr %2, align 8
  store i32 1, ptr %7, align 4
  br label %38

38:                                               ; preds = %32, %31, %20
  call void @llvm.lifetime.end.p0(i64 24, ptr %6) #5
  call void @llvm.lifetime.end.p0(i64 4, ptr %5) #5
  call void @llvm.lifetime.end.p0(i64 4, ptr %4) #5
  %39 = load ptr, ptr %2, align 8
  ret ptr %39
}

; Function Attrs: nounwind uwtable
define internal i32 @get_decomposed_size(i32 noundef %0, i1 noundef zeroext %1) #0 {
  %3 = alloca i32, align 4
  %4 = alloca i32, align 4
  %5 = alloca i8, align 1
  %6 = alloca ptr, align 8
  %7 = alloca i32, align 4
  %8 = alloca i32, align 4
  %9 = alloca ptr, align 8
  %10 = alloca i32, align 4
  %11 = alloca i32, align 4
  %12 = alloca i32, align 4
  %13 = alloca i32, align 4
  %14 = alloca i32, align 4
  store i32 %0, ptr %4, align 4
  %15 = zext i1 %1 to i8
  store i8 %15, ptr %5, align 1
  call void @llvm.lifetime.start.p0(i64 8, ptr %6) #5
  call void @llvm.lifetime.start.p0(i64 4, ptr %7) #5
  store i32 0, ptr %7, align 4
  call void @llvm.lifetime.start.p0(i64 4, ptr %8) #5
  call void @llvm.lifetime.start.p0(i64 8, ptr %9) #5
  call void @llvm.lifetime.start.p0(i64 4, ptr %10) #5
  %16 = load i32, ptr %4, align 4
  %17 = icmp uge i32 %16, 44032
  br i1 %17, label %18, label %31

18:                                               ; preds = %2
  %19 = load i32, ptr %4, align 4
  %20 = icmp ult i32 %19, 55204
  br i1 %20, label %21, label %31

21:                                               ; preds = %18
  call void @llvm.lifetime.start.p0(i64 4, ptr %11) #5
  call void @llvm.lifetime.start.p0(i64 4, ptr %12) #5
  %22 = load i32, ptr %4, align 4
  %23 = sub i32 %22, 44032
  store i32 %23, ptr %12, align 4
  %24 = load i32, ptr %12, align 4
  %25 = urem i32 %24, 28
  store i32 %25, ptr %11, align 4
  %26 = load i32, ptr %11, align 4
  %27 = icmp ne i32 %26, 0
  br i1 %27, label %28, label %29

28:                                               ; preds = %21
  store i32 3, ptr %3, align 4
  store i32 1, ptr %13, align 4
  br label %30

29:                                               ; preds = %21
  store i32 2, ptr %3, align 4
  store i32 1, ptr %13, align 4
  br label %30

30:                                               ; preds = %29, %28
  call void @llvm.lifetime.end.p0(i64 4, ptr %12) #5
  call void @llvm.lifetime.end.p0(i64 4, ptr %11) #5
  br label %78

31:                                               ; preds = %18, %2
  %32 = load i32, ptr %4, align 4
  %33 = call ptr @get_code_entry(i32 noundef %32)
  store ptr %33, ptr %6, align 8
  %34 = load ptr, ptr %6, align 8
  %35 = icmp eq ptr %34, null
  br i1 %35, label %53, label %36

36:                                               ; preds = %31
  %37 = load ptr, ptr %6, align 8
  %38 = getelementptr inbounds nuw %struct.pg_unicode_decomposition, ptr %37, i32 0, i32 2
  %39 = load i8, ptr %38, align 1
  %40 = zext i8 %39 to i32
  %41 = and i32 %40, 31
  %42 = icmp eq i32 %41, 0
  br i1 %42, label %53, label %43

43:                                               ; preds = %36
  %44 = load i8, ptr %5, align 1, !range !4, !noundef !5
  %45 = trunc i8 %44 to i1
  br i1 %45, label %54, label %46

46:                                               ; preds = %43
  %47 = load ptr, ptr %6, align 8
  %48 = getelementptr inbounds nuw %struct.pg_unicode_decomposition, ptr %47, i32 0, i32 2
  %49 = load i8, ptr %48, align 1
  %50 = zext i8 %49 to i32
  %51 = and i32 %50, 32
  %52 = icmp ne i32 %51, 0
  br i1 %52, label %53, label %54

53:                                               ; preds = %46, %36, %31
  store i32 1, ptr %3, align 4
  store i32 1, ptr %13, align 4
  br label %78

54:                                               ; preds = %46, %43
  %55 = load ptr, ptr %6, align 8
  %56 = call ptr @get_code_decomposition(ptr noundef %55, ptr noundef %10)
  store ptr %56, ptr %9, align 8
  store i32 0, ptr %8, align 4
  br label %57

57:                                               ; preds = %73, %54
  %58 = load i32, ptr %8, align 4
  %59 = load i32, ptr %10, align 4
  %60 = icmp slt i32 %58, %59
  br i1 %60, label %61, label %76

61:                                               ; preds = %57
  call void @llvm.lifetime.start.p0(i64 4, ptr %14) #5
  %62 = load ptr, ptr %9, align 8
  %63 = load i32, ptr %8, align 4
  %64 = sext i32 %63 to i64
  %65 = getelementptr inbounds i32, ptr %62, i64 %64
  %66 = load i32, ptr %65, align 4
  store i32 %66, ptr %14, align 4
  %67 = load i32, ptr %14, align 4
  %68 = load i8, ptr %5, align 1, !range !4, !noundef !5
  %69 = trunc i8 %68 to i1
  %70 = call i32 @get_decomposed_size(i32 noundef %67, i1 noundef zeroext %69)
  %71 = load i32, ptr %7, align 4
  %72 = add i32 %71, %70
  store i32 %72, ptr %7, align 4
  call void @llvm.lifetime.end.p0(i64 4, ptr %14) #5
  br label %73

73:                                               ; preds = %61
  %74 = load i32, ptr %8, align 4
  %75 = add i32 %74, 1
  store i32 %75, ptr %8, align 4
  br label %57, !llvm.loop !11

76:                                               ; preds = %57
  %77 = load i32, ptr %7, align 4
  store i32 %77, ptr %3, align 4
  store i32 1, ptr %13, align 4
  br label %78

78:                                               ; preds = %76, %53, %30
  call void @llvm.lifetime.end.p0(i64 4, ptr %10) #5
  call void @llvm.lifetime.end.p0(i64 8, ptr %9) #5
  call void @llvm.lifetime.end.p0(i64 4, ptr %8) #5
  call void @llvm.lifetime.end.p0(i64 4, ptr %7) #5
  call void @llvm.lifetime.end.p0(i64 8, ptr %6) #5
  %79 = load i32, ptr %3, align 4
  ret i32 %79
}