; Function Attrs: nofree nosync nounwind memory(readwrite, argmem: read, inaccessiblemem: none) uwtable
define internal fastcc i32 @get_decomposed_size(i32 noundef %0, i1 noundef zeroext %1) unnamed_addr #2 {
  %3 = alloca i32, align 4
  %4 = add i32 %0, -44032
  %or.cond = icmp ult i32 %4, 11172
  br i1 %or.cond, label %5, label %7

5:                                                ; preds = %2
  %.lhs.trunc = trunc nuw i32 %4 to i16
  %6 = urem i16 %.lhs.trunc, 28
  %.not24 = icmp eq i16 %6, 0
  %. = select i1 %.not24, i32 2, i32 3
  br label %.loopexit

7:                                                ; preds = %2
  call void @llvm.lifetime.start.p0(i64 4, ptr nonnull %3) #7
  %8 = tail call i32 @llvm.bswap.i32(i32 %0)
  store i32 %8, ptr %3, align 4
  br label %9

9:                                                ; preds = %9, %7
  %.014.i.i = phi ptr [ %3, %7 ], [ %11, %9 ]
  %.0813.i.i = phi i32 [ 1, %7 ], [ %17, %9 ]
  %.0912.i.i = phi i32 [ 0, %7 ], [ %15, %9 ]
  %.01011.i.i = phi i64 [ 4, %7 ], [ %10, %9 ]
  %10 = add nsw i64 %.01011.i.i, -1
  %11 = getelementptr inbounds nuw i8, ptr %.014.i.i, i64 1
  %12 = load i8, ptr %.014.i.i, align 1
  %13 = mul i32 %.0912.i.i, 257
  %14 = zext i8 %12 to i32
  %15 = add i32 %13, %14
  %16 = mul i32 %.0813.i.i, 8191
  %17 = add i32 %16, %14
  %.not.i.i = icmp eq i64 %10, 0
  br i1 %.not.i.i, label %Decomp_hash_func.exit.i, label %9, !llvm.loop !7

Decomp_hash_func.exit.i:                          ; preds = %9
  %18 = urem i32 %15, 13551
  %19 = zext nneg i32 %18 to i64
  %20 = getelementptr inbounds nuw [13551 x i16], ptr @Decomp_hash_func.h, i64 0, i64 %19
  %21 = load i16, ptr %20, align 2
  %22 = sext i16 %21 to i32
  %23 = urem i32 %17, 13551
  %24 = zext nneg i32 %23 to i64
  %25 = getelementptr inbounds nuw [13551 x i16], ptr @Decomp_hash_func.h, i64 0, i64 %24
  %26 = load i16, ptr %25, align 2
  %27 = sext i16 %26 to i32
  %28 = add nsw i32 %27, %22
  %or.cond.i = icmp ugt i32 %28, 6774
  br i1 %or.cond.i, label %get_code_entry.exit.thread, label %29

29:                                               ; preds = %Decomp_hash_func.exit.i
  %30 = zext nneg i32 %28 to i64
  %31 = getelementptr inbounds nuw %struct.pg_unicode_decomposition, ptr @UnicodeDecompMain, i64 %30
  %32 = load i32, ptr %31, align 8
  %.not.i = icmp eq i32 %0, %32
  br i1 %.not.i, label %33, label %get_code_entry.exit.thread

get_code_entry.exit.thread:                       ; preds = %Decomp_hash_func.exit.i, %29
  call void @llvm.lifetime.end.p0(i64 4, ptr nonnull %3) #7
  br label %.loopexit

33:                                               ; preds = %29
  call void @llvm.lifetime.end.p0(i64 4, ptr nonnull %3) #7
  %34 = getelementptr inbounds nuw i8, ptr %31, i64 5
  %35 = load i8, ptr %34, align 1
  %36 = zext i8 %35 to i32
  %37 = and i32 %36, 31
  %38 = icmp eq i32 %37, 0
  br i1 %38, label %.loopexit, label %39

39:                                               ; preds = %33
  %40 = and i32 %36, 32
  %.not = icmp eq i32 %40, 0
  %or.cond25 = or i1 %1, %.not
  br i1 %or.cond25, label %41, label %.loopexit

41:                                               ; preds = %39
  %42 = and i32 %36, 64
  %.not.i26 = icmp eq i32 %42, 0
  %43 = getelementptr inbounds nuw i8, ptr %31, i64 6
  %44 = load i16, ptr %43, align 2
  br i1 %.not.i26, label %47, label %45

45:                                               ; preds = %41
  %46 = zext i16 %44 to i32
  store i32 %46, ptr @get_code_decomposition.x, align 4
  br label %get_code_decomposition.exit

47:                                               ; preds = %41
  %48 = zext i16 %44 to i64
  %49 = getelementptr inbounds nuw [5098 x i32], ptr @UnicodeDecomp_codepoints, i64 0, i64 %48
  %50 = zext nneg i32 %37 to i64
  br label %get_code_decomposition.exit

get_code_decomposition.exit:                      ; preds = %45, %47
  %.0 = phi i64 [ %50, %47 ], [ 1, %45 ]
  %.0.i27 = phi ptr [ %49, %47 ], [ @get_code_decomposition.x, %45 ]
  br label %51

51:                                               ; preds = %get_code_decomposition.exit, %51
  %indvars.iv = phi i64 [ 0, %get_code_decomposition.exit ], [ %indvars.iv.next, %51 ]
  %.02031 = phi i32 [ 0, %get_code_decomposition.exit ], [ %55, %51 ]
  %52 = getelementptr inbounds nuw i32, ptr %.0.i27, i64 %indvars.iv
  %53 = load i32, ptr %52, align 4
  %54 = tail call fastcc i32 @get_decomposed_size(i32 noundef %53, i1 noundef zeroext %1)
  %55 = add i32 %54, %.02031
  %indvars.iv.next = add nuw nsw i64 %indvars.iv, 1
  %exitcond.not = icmp eq i64 %indvars.iv.next, %.0
  br i1 %exitcond.not, label %.loopexit, label %51, !llvm.loop !11

.loopexit:                                        ; preds = %51, %get_code_entry.exit.thread, %33, %39, %5
  %.1 = phi i32 [ %., %5 ], [ 1, %39 ], [ 1, %33 ], [ 1, %get_code_entry.exit.thread ], [ %55, %51 ]
  ret i32 %.1
}